; Function Attrs: mustprogress uwtable
define noundef double @_ZNK8QuantLib17ForwardValueQuote5valueEv(ptr noundef nonnull align 8 dereferenceable(88) %this) unnamed_addr #6 align 2 {
entry:
  %index_ = getelementptr inbounds nuw i8, ptr %this, i64 64
  %0 = load ptr, ptr %index_, align 8, !tbaa !30
  %cmp.not.i = icmp eq ptr %0, null
  br i1 %cmp.not.i, label %cond.false.i, label %_ZNK5boost10shared_ptrIN8QuantLib5IndexEEptEv.exit, !prof !40

cond.false.i:                                     ; preds = %entry
  tail call void @_ZN5boost16assertion_failedEPKcS1_S1_l(ptr noundef nonnull @.str.3, ptr noundef nonnull @__PRETTY_FUNCTION__._ZNK5boost10shared_ptrIN8QuantLib5IndexEEptEv, ptr noundef nonnull @.str.4, i64 noundef 784)
  %.pre.i = load ptr, ptr %index_, align 8, !tbaa !30
  br label %_ZNK5boost10shared_ptrIN8QuantLib5IndexEEptEv.exit

_ZNK5boost10shared_ptrIN8QuantLib5IndexEEptEv.exit: ; preds = %entry, %cond.false.i
  %1 = phi ptr [ %0, %entry ], [ %.pre.i, %cond.false.i ]
  %fixingDate_ = getelementptr inbounds nuw i8, ptr %this, i64 80
  %vtable = load ptr, ptr %1, align 8, !tbaa !28
  %vfn = getelementptr inbounds i8, ptr %vtable, i64 40
  %2 = load ptr, ptr %vfn, align 8
  %call2 = tail call noundef double %2(ptr noundef nonnull align 8 dereferenceable(112) %1, ptr noundef nonnull align 8 dereferenceable(8) %fixingDate_, i1 noundef zeroext false)
  ret double %call2
}